; Function Attrs: mustprogress uwtable
define internal fastcc noundef zeroext i1 @_ZL15cmLibDirsLinkedRKNSt7__cxx1112basic_stringIcSt11char_traitsIcESaIcEEES6_(ptr noundef nonnull align 8 dereferenceable(32) %0, ptr noundef nonnull align 8 dereferenceable(32) %1) unnamed_addr #3 personality ptr @__gxx_personality_v0 {
  %3 = alloca %"class.std::__cxx11::basic_string", align 8
  %4 = alloca %"class.std::__cxx11::basic_string", align 8
  %5 = tail call noundef zeroext i1 @_ZN5cmsys11SystemTools13FileIsSymlinkERKNSt7__cxx1112basic_stringIcSt11char_traitsIcESaIcEEE(ptr noundef nonnull align 8 dereferenceable(32) %0)
  br i1 %5, label %8, label %6

6:                                                ; preds = %2
  %7 = tail call noundef zeroext i1 @_ZN5cmsys11SystemTools13FileIsSymlinkERKNSt7__cxx1112basic_stringIcSt11char_traitsIcESaIcEEE(ptr noundef nonnull align 8 dereferenceable(32) %1)
  br i1 %7, label %8, label %.critedge

8:                                                ; preds = %6, %2
  call void @_ZN5cmsys11SystemTools11GetRealPathERKNSt7__cxx1112basic_stringIcSt11char_traitsIcESaIcEEEPS6_(ptr dead_on_unwind nonnull writable sret(%"class.std::__cxx11::basic_string") align 8 %3, ptr noundef nonnull align 8 dereferenceable(32) %0, ptr noundef null)
  invoke void @_ZN5cmsys11SystemTools11GetRealPathERKNSt7__cxx1112basic_stringIcSt11char_traitsIcESaIcEEEPS6_(ptr dead_on_unwind nonnull writable sret(%"class.std::__cxx11::basic_string") align 8 %4, ptr noundef nonnull align 8 dereferenceable(32) %1, ptr noundef null)
          to label %9 unwind label %22

9:                                                ; preds = %8
  %10 = call noundef i64 @_ZNKSt7__cxx1112basic_stringIcSt11char_traitsIcESaIcEE4sizeEv(ptr noundef nonnull align 8 dereferenceable(32) %3) #17
  %11 = call noundef i64 @_ZNKSt7__cxx1112basic_stringIcSt11char_traitsIcESaIcEE4sizeEv(ptr noundef nonnull align 8 dereferenceable(32) %4) #17
  %12 = icmp eq i64 %10, %11
  br i1 %12, label %13, label %20

13:                                               ; preds = %9
  %14 = call noundef ptr @_ZNKSt7__cxx1112basic_stringIcSt11char_traitsIcESaIcEE4dataEv(ptr noundef nonnull align 8 dereferenceable(32) %3) #17
  %15 = call noundef ptr @_ZNKSt7__cxx1112basic_stringIcSt11char_traitsIcESaIcEE4dataEv(ptr noundef nonnull align 8 dereferenceable(32) %4) #17
  %16 = call noundef i64 @_ZNKSt7__cxx1112basic_stringIcSt11char_traitsIcESaIcEE4sizeEv(ptr noundef nonnull align 8 dereferenceable(32) %3) #17
  %17 = icmp eq i64 %16, 0
  br i1 %17, label %20, label %18

18:                                               ; preds = %13
  %bcmp.i = call i32 @bcmp(ptr %14, ptr %15, i64 %16)
  %19 = icmp eq i32 %bcmp.i, 0
  br label %20

20:                                               ; preds = %9, %13, %18
  %.ph = phi i1 [ true, %13 ], [ %19, %18 ], [ false, %9 ]
  call void @_ZNSt7__cxx1112basic_stringIcSt11char_traitsIcESaIcEED1Ev(ptr noundef nonnull align 8 dereferenceable(32) %4) #17
  call void @_ZNSt7__cxx1112basic_stringIcSt11char_traitsIcESaIcEED1Ev(ptr noundef nonnull align 8 dereferenceable(32) %3) #17
  br label %.critedge

.critedge:                                        ; preds = %6, %20
  %21 = phi i1 [ %.ph, %20 ], [ false, %6 ]
  ret i1 %21

22:                                               ; preds = %8
  %23 = landingpad { ptr, i32 }
          cleanup
  call void @_ZNSt7__cxx1112basic_stringIcSt11char_traitsIcESaIcEED1Ev(ptr noundef nonnull align 8 dereferenceable(32) %3) #17
  resume { ptr, i32 } %23
}